target datalayout = "e-m:e-p270:32:32-p271:32:32-p272:64:64-i64:64-i128:128-f80:128-n8:16:32:64-S128"
target triple = "x86_64-pc-linux-gnu"

%"class.cv::FileNode" = type { ptr, i64, i64 }

; Function Attrs: alwaysinline mustprogress nounwind uwtable
define internal noundef i32 @_ZL14_mm_cvtsd_si32Dv2_d(<2 x double> noundef %0) #19 {
  %2 = alloca <2 x double>, align 16
  store <2 x double> %0, ptr %2, align 16, !tbaa !10
  %3 = load <2 x double>, ptr %2, align 16, !tbaa !10
  %4 = call i32 @llvm.x86.sse2.cvtsd2si(<2 x double> %3)
  ret i32 %4
}

; Function Attrs: alwaysinline mustprogress nounwind uwtable
define internal noundef <2 x double> @_ZL10_mm_set_sdd(double noundef %0) #19 {
  %2 = alloca double, align 8
  %3 = alloca <2 x double>, align 16
  store double %0, ptr %2, align 8, !tbaa !23
  %4 = load double, ptr %2, align 8, !tbaa !23
  %5 = insertelement <2 x double> poison, double %4, i32 0
  %6 = insertelement <2 x double> %5, double 0.000000e+00, i32 1
  store <2 x double> %6, ptr %3, align 16, !tbaa !10
  %7 = load <2 x double>, ptr %3, align 16, !tbaa !10
  ret <2 x double> %7
}

; Function Attrs: inlinehint mustprogress uwtable
define internal noundef i32 @_ZL7cvRoundd(double noundef %0) #10 {
  %2 = alloca double, align 8
  %3 = alloca <2 x double>, align 16
  store double %0, ptr %2, align 8, !tbaa !23
  call void @llvm.lifetime.start.p0(i64 16, ptr %3) #3
  %4 = load double, ptr %2, align 8, !tbaa !23
  %5 = call noundef <2 x double> @_ZL10_mm_set_sdd(double noundef %4)
  store <2 x double> %5, ptr %3, align 16, !tbaa !10
  %6 = load <2 x double>, ptr %3, align 16, !tbaa !10
  %7 = call noundef i32 @_ZL14_mm_cvtsd_si32Dv2_d(<2 x double> noundef %6)
  call void @llvm.lifetime.end.p0(i64 16, ptr %3) #3
  ret i32 %7
}

; Function Attrs: inlinehint mustprogress nounwind uwtable
define internal noundef double @_ZN2cvL8readRealEPKh(ptr noundef %0) #7 {
  %2 = alloca ptr, align 8
  %3 = alloca double, align 8
  store ptr %0, ptr %2, align 8, !tbaa !3
  call void @llvm.lifetime.start.p0(i64 8, ptr %3) #3
  %4 = load ptr, ptr %2, align 8, !tbaa !3
  call void @llvm.memcpy.p0.p0.i64(ptr align 8 %3, ptr align 1 %4, i64 8, i1 false)
  %5 = load double, ptr %3, align 8, !tbaa !23
  call void @llvm.lifetime.end.p0(i64 8, ptr %3) #3
  ret double %5
}

; Function Attrs: inlinehint mustprogress nounwind uwtable
define internal noundef i64 @_ZN2cvL8readLongEPKh(ptr noundef %0) #7 {
  %2 = alloca ptr, align 8
  %3 = alloca i64, align 8
  store ptr %0, ptr %2, align 8, !tbaa !3
  call void @llvm.lifetime.start.p0(i64 8, ptr %3) #3
  %4 = load ptr, ptr %2, align 8, !tbaa !3
  call void @llvm.memcpy.p0.p0.i64(ptr align 8 %3, ptr align 1 %4, i64 8, i1 false)
  %5 = load i64, ptr %3, align 8, !tbaa !8
  call void @llvm.lifetime.end.p0(i64 8, ptr %3) #3
  ret i64 %5
}

; Function Attrs: mustprogress uwtable
define noundef ptr @_ZNK2cv8FileNode3ptrEv(ptr noundef nonnull align 8 dereferenceable(24) %0) #4 align 2 {
  %2 = alloca ptr, align 8
  store ptr %0, ptr %2, align 8, !tbaa !212
  %3 = load ptr, ptr %2, align 8
  %4 = getelementptr inbounds nuw %"class.cv::FileNode", ptr %3, i32 0, i32 0
  %5 = load ptr, ptr %4, align 8, !tbaa !243
  %6 = icmp ne ptr %5, null
  br i1 %6, label %8, label %7

7:                                                ; preds = %1
  br label %16

8:                                                ; preds = %1
  %9 = getelementptr inbounds nuw %"class.cv::FileNode", ptr %3, i32 0, i32 0
  %10 = load ptr, ptr %9, align 8, !tbaa !243
  %11 = getelementptr inbounds nuw %"class.cv::FileNode", ptr %3, i32 0, i32 1
  %12 = load i64, ptr %11, align 8, !tbaa !213
  %13 = getelementptr inbounds nuw %"class.cv::FileNode", ptr %3, i32 0, i32 2
  %14 = load i64, ptr %13, align 8, !tbaa !215
  %15 = call noundef ptr @_ZNK2cv11FileStorage4Impl10getNodePtrEmm(ptr noundef nonnull align 8 dereferenceable(700) %10, i64 noundef %12, i64 noundef %14)
  br label %16

16:                                               ; preds = %8, %7
  %17 = phi ptr [ null, %7 ], [ %15, %8 ]
  ret ptr %17
}

; Function Attrs: mustprogress uwtable
define noundef i64 @_ZNK2cv8FileNodecvlEv(ptr noundef nonnull align 8 dereferenceable(24) %0) #4 align 2 {
  %2 = alloca i64, align 8
  %3 = alloca ptr, align 8
  %4 = alloca ptr, align 8
  %5 = alloca i32, align 4
  %6 = alloca i32, align 4
  %7 = alloca i32, align 4
  store ptr %0, ptr %3, align 8, !tbaa !212
  %8 = load ptr, ptr %3, align 8
  call void @llvm.lifetime.start.p0(i64 8, ptr %4) #3
  %9 = call noundef ptr @_ZNK2cv8FileNode3ptrEv(ptr noundef nonnull align 8 dereferenceable(24) %8)
  store ptr %9, ptr %4, align 8, !tbaa !3
  %10 = load ptr, ptr %4, align 8, !tbaa !3
  %11 = icmp ne ptr %10, null
  br i1 %11, label %13, label %12

12:                                               ; preds = %1
  store i64 0, ptr %2, align 8
  store i32 1, ptr %5, align 4
  br label %41

13:                                               ; preds = %1
  call void @llvm.lifetime.start.p0(i64 4, ptr %6) #3
  %14 = load ptr, ptr %4, align 8, !tbaa !3
  %15 = load i8, ptr %14, align 1, !tbaa !10
  %16 = zext i8 %15 to i32
  store i32 %16, ptr %6, align 4, !tbaa !11
  call void @llvm.lifetime.start.p0(i64 4, ptr %7) #3
  %17 = load i32, ptr %6, align 4, !tbaa !11
  %18 = and i32 %17, 7
  store i32 %18, ptr %7, align 4, !tbaa !11
  %19 = load i32, ptr %6, align 4, !tbaa !11
  %20 = and i32 %19, 32
  %21 = icmp ne i32 %20, 0
  %22 = select i1 %21, i32 5, i32 1
  %23 = load ptr, ptr %4, align 8, !tbaa !3
  %24 = sext i32 %22 to i64
  %25 = getelementptr inbounds i8, ptr %23, i64 %24
  store ptr %25, ptr %4, align 8, !tbaa !3
  %26 = load i32, ptr %7, align 4, !tbaa !11
  %27 = icmp eq i32 %26, 1
  br i1 %27, label %28, label %31

28:                                               ; preds = %13
  %29 = load ptr, ptr %4, align 8, !tbaa !3
  %30 = call noundef i64 @_ZN2cvL8readLongEPKh(ptr noundef %29)
  store i64 %30, ptr %2, align 8
  store i32 1, ptr %5, align 4
  br label %40

31:                                               ; preds = %13
  %32 = load i32, ptr %7, align 4, !tbaa !11
  %33 = icmp eq i32 %32, 2
  br i1 %33, label %34, label %39

34:                                               ; preds = %31
  %35 = load ptr, ptr %4, align 8, !tbaa !3
  %36 = call noundef double @_ZN2cvL8readRealEPKh(ptr noundef %35)
  %37 = call noundef i32 @_ZL7cvRoundd(double noundef %36)
  %38 = sext i32 %37 to i64
  store i64 %38, ptr %2, align 8
  store i32 1, ptr %5, align 4
  br label %40

39:                                               ; preds = %31
  store i64 2147483647, ptr %2, align 8
  store i32 1, ptr %5, align 4
  br label %40

40:                                               ; preds = %39, %34, %28
  call void @llvm.lifetime.end.p0(i64 4, ptr %7) #3
  call void @llvm.lifetime.end.p0(i64 4, ptr %6) #3
  br label %41

41:                                               ; preds = %40, %12
  call void @llvm.lifetime.end.p0(i64 8, ptr %4) #3
  %42 = load i64, ptr %2, align 8
  ret i64 %42
}

; Function Attrs: mustprogress nounwind uwtable
define noundef zeroext i1 @_ZNK2cv8FileNode5emptyEv(ptr noundef nonnull align 8 dereferenceable(24) %0) #8 align 2 {
  %2 = alloca ptr, align 8
  store ptr %0, ptr %2, align 8, !tbaa !212
  %3 = load ptr, ptr %2, align 8
  %4 = getelementptr inbounds nuw %"class.cv::FileNode", ptr %3, i32 0, i32 0
  %5 = load ptr, ptr %4, align 8, !tbaa !243
  %6 = icmp eq ptr %5, null
  ret i1 %6
}

; Function Attrs: mustprogress uwtable
define void @_ZN2cv4readERKNS_8FileNodeERll(ptr noundef nonnull align 8 dereferenceable(24) %0, ptr noundef nonnull align 8 dereferenceable(8) %1, i64 noundef %2) #4 {
  %4 = alloca ptr, align 8
  %5 = alloca ptr, align 8
  %6 = alloca i64, align 8
  store ptr %0, ptr %4, align 8, !tbaa !212
  store ptr %1, ptr %5, align 8, !tbaa !15
  store i64 %2, ptr %6, align 8, !tbaa !8
  %7 = load i64, ptr %6, align 8, !tbaa !8
  %8 = load ptr, ptr %5, align 8, !tbaa !15
  store i64 %7, ptr %8, align 8, !tbaa !8
  %9 = load ptr, ptr %4, align 8, !tbaa !212
  %10 = call noundef zeroext i1 @_ZNK2cv8FileNode5emptyEv(ptr noundef nonnull align 8 dereferenceable(24) %9)
  br i1 %10, label %15, label %11

11:                                               ; preds = %3
  %12 = load ptr, ptr %4, align 8, !tbaa !212
  %13 = call noundef i64 @_ZNK2cv8FileNodecvlEv(ptr noundef nonnull align 8 dereferenceable(24) %12)
  %14 = load ptr, ptr %5, align 8, !tbaa !15
  store i64 %13, ptr %14, align 8, !tbaa !8
  br label %15

15:                                               ; preds = %11, %3
  ret void
}